; Function Attrs: mustprogress nofree norecurse nosync nounwind memory(readwrite, inaccessiblemem: none) uwtable
define dso_local void @_ZN9struct_pb8internal12serialize_toIN11conformance18JspbEncodingConfigEEEvPcmRKT_RKNS_13UnknownFieldsE(ptr nocapture noundef writeonly %data, i64 noundef %size, ptr nocapture noundef nonnull readonly align 1 dereferenceable(1) %t, ptr nocapture noundef nonnull readonly align 8 dereferenceable(24) %unknown_fields) local_unnamed_addr #1 {
entry:
  %0 = load i8, ptr %t, align 1
  %1 = and i8 %0, 1
  %tobool.not = icmp eq i8 %1, 0
  br i1 %tobool.not, label %if.end, label %_ZN9struct_pb8internal16serialize_varintEPcRmmm.exit19

_ZN9struct_pb8internal16serialize_varintEPcRmmm.exit19: ; preds = %entry
  store i8 8, ptr %data, align 1
  %2 = load i8, ptr %t, align 1
  %3 = and i8 %2, 1
  %arrayidx3.i = getelementptr inbounds i8, ptr %data, i64 1
  store i8 %3, ptr %arrayidx3.i, align 1
  br label %if.end

if.end:                                           ; preds = %_ZN9struct_pb8internal16serialize_varintEPcRmmm.exit19, %entry
  %pos.0 = phi i64 [ 0, %entry ], [ 2, %_ZN9struct_pb8internal16serialize_varintEPcRmmm.exit19 ]
  %4 = load ptr, ptr %unknown_fields, align 8
  %_M_finish.i.i = getelementptr inbounds i8, ptr %unknown_fields, i64 8
  %5 = load ptr, ptr %_M_finish.i.i, align 8
  %cmp.i7.i = icmp eq ptr %4, %5
  br i1 %cmp.i7.i, label %_ZNK9struct_pb13UnknownFields12serialize_toEPcRmm.exit, label %for.body.i

for.body.i:                                       ; preds = %if.end, %for.body.i
  %pos.1 = phi i64 [ %add.i, %for.body.i ], [ %pos.0, %if.end ]
  %__begin2.sroa.0.08.i = phi ptr [ %incdec.ptr.i.i, %for.body.i ], [ %4, %if.end ]
  %add.ptr.i = getelementptr inbounds i8, ptr %data, i64 %pos.1
  %6 = load ptr, ptr %__begin2.sroa.0.08.i, align 8
  %len.i = getelementptr inbounds i8, ptr %__begin2.sroa.0.08.i, i64 8
  %7 = load i64, ptr %len.i, align 8
  tail call void @llvm.memcpy.p0.p0.i64(ptr align 1 %add.ptr.i, ptr align 1 %6, i64 %7, i1 false)
  %8 = load i64, ptr %len.i, align 8
  %add.i = add i64 %8, %pos.1
  %incdec.ptr.i.i = getelementptr inbounds i8, ptr %__begin2.sroa.0.08.i, i64 16
  %cmp.i.i = icmp eq ptr %incdec.ptr.i.i, %5
  br i1 %cmp.i.i, label %_ZNK9struct_pb13UnknownFields12serialize_toEPcRmm.exit, label %for.body.i

_ZNK9struct_pb13UnknownFields12serialize_toEPcRmm.exit: ; preds = %for.body.i, %if.end
  ret void
}